target datalayout = "e-m:e-p270:32:32-p271:32:32-p272:64:64-i64:64-i128:128-f80:128-n8:16:32:64-S128"
target triple = "x86_64-pc-linux-gnu"

%struct.PyMutex = type { i8 }
%struct._xid_lookup_state = type { %struct._PyXIData_registry_t }
%struct._PyXIData_registry_t = type { i32, i32, %struct.PyMutex, ptr }
%struct.llist_node = type { ptr, ptr }
%struct.PyWideStringList = type { i64, ptr }
%struct._pending_calls = type { ptr, %struct.PyMutex, i32, i32, i32, [300 x %struct._pending_call], i32, i32 }
%struct._pending_call = type { ptr, ptr, i32 }
%struct._stoptheworld_state = type { %struct.PyMutex, i8, i8, i8, %struct.PyEvent, i64, ptr }
%struct.PyEvent = type { i8 }
%struct._object = type { %union.anon, ptr }
%union.anon = type { i64 }
%struct.PyGC_Head = type { i64, i64 }
%struct._is = type { %struct._ceval_state, ptr, i64, i64, i32, i64, i32, i32, i32, i64, %struct.pythreads, ptr, ptr, i64, %struct._gc_runtime_state, ptr, ptr, %struct._import_state, %struct._gil_runtime_state, %struct.codecs_state, %struct.PyConfig, i64, ptr, ptr, ptr, ptr, [8 x ptr], i8, i64, [255 x ptr], %struct._PyXI_state_t, ptr, ptr, ptr, %struct._warnings_runtime_state, %struct.atexit_state, %struct._stoptheworld_state, %struct._qsbr_shared, ptr, ptr, [8 x ptr], [8 x ptr], [8 x ptr], i8, i8, %struct._py_object_state, %struct._Py_unicode_state, %struct._Py_long_state, %struct._dtoa_state, %struct._py_func_state, %struct._py_code_state, %struct._Py_dict_state, %struct._Py_exc_state, %struct._Py_mem_interp_free_queue, %struct.ast_state, %struct.types_state, %struct.callable_cache, i8, ptr, i64, %struct._rare_events, ptr, %struct._Py_GlobalMonitors, i8, i8, i64, i64, [8 x [19 x ptr]], [8 x ptr], [8 x i64], %struct._Py_interp_cached_objects, %struct._Py_interp_static_objects, i64, %struct._PyThreadStateImpl }
%struct._ceval_state = type { i64, i32, ptr, i32, %struct._pending_calls }
%struct.pythreads = type { i64, ptr, ptr, ptr, i64, i64 }
%struct._gc_runtime_state = type { ptr, i32, i32, i32, %struct.gc_generation, [2 x %struct.gc_generation], %struct.gc_generation, [3 x %struct.gc_generation_stats], i32, ptr, ptr, i64, i64, i32, i32 }
%struct.gc_generation = type { %struct.PyGC_Head, i32, i32 }
%struct.gc_generation_stats = type { i64, i64, i64 }
%struct._import_state = type { ptr, ptr, ptr, i32, i32, i32, ptr, %struct._PyRecursiveMutex, %struct.anon }
%struct._PyRecursiveMutex = type { %struct.PyMutex, i64, i64 }
%struct.anon = type { i32, i64, i32 }
%struct._gil_runtime_state = type { i64, ptr, i32, i64, %union.pthread_cond_t, %union.pthread_mutex_t, %union.pthread_cond_t, %union.pthread_mutex_t }
%union.pthread_cond_t = type { %struct.__pthread_cond_s }
%struct.__pthread_cond_s = type { %union.__atomic_wide_counter, %union.__atomic_wide_counter, [2 x i32], [2 x i32], i32, i32, [2 x i32] }
%union.__atomic_wide_counter = type { i64 }
%union.pthread_mutex_t = type { %struct.__pthread_mutex_s }
%struct.__pthread_mutex_s = type { i32, i32, i32, i32, i32, i16, i16, %struct.__pthread_internal_list }
%struct.__pthread_internal_list = type { ptr, ptr }
%struct.codecs_state = type { ptr, ptr, ptr, i32 }
%struct.PyConfig = type { i32, i32, i32, i32, i32, i32, i64, i32, i32, i32, i32, i32, i32, i32, ptr, i32, ptr, ptr, ptr, i32, %struct.PyWideStringList, %struct.PyWideStringList, %struct.PyWideStringList, %struct.PyWideStringList, i32, i32, i32, i32, i32, i32, i32, i32, i32, i32, i32, i32, i32, ptr, ptr, ptr, i32, i32, i32, i32, i32, ptr, ptr, ptr, ptr, i32, %struct.PyWideStringList, ptr, ptr, ptr, ptr, ptr, ptr, ptr, i32, ptr, ptr, ptr, ptr, i32, i32, i32 }
%struct._PyXI_state_t = type { %struct._xid_lookup_state, %struct.xi_exceptions }
%struct.xi_exceptions = type { ptr, ptr, ptr }
%struct._warnings_runtime_state = type { ptr, ptr, ptr, %struct._PyRecursiveMutex, i64 }
%struct.atexit_state = type { ptr, ptr }
%struct._qsbr_shared = type { i64, i64, ptr, i64, %struct.PyMutex, ptr }
%struct._py_object_state = type { %struct._Py_freelists, i32 }
%struct._Py_freelists = type { %struct._Py_freelist, %struct._Py_freelist, [20 x %struct._Py_freelist], %struct._Py_freelist, %struct._Py_freelist, %struct._Py_freelist, %struct._Py_freelist, %struct._Py_freelist, %struct._Py_freelist, %struct._Py_freelist, %struct._Py_freelist, %struct._Py_freelist, %struct._Py_freelist, %struct._Py_freelist, %struct._Py_freelist, %struct._Py_freelist }
%struct._Py_freelist = type { ptr, i64 }
%struct._Py_unicode_state = type { %struct._Py_unicode_fs_codec, ptr, %struct._Py_unicode_ids }
%struct._Py_unicode_fs_codec = type { ptr, i32, ptr, i32 }
%struct._Py_unicode_ids = type { i64, ptr }
%struct._Py_long_state = type { i32 }
%struct._dtoa_state = type { [8 x ptr], [8 x ptr], [288 x double], ptr }
%struct._py_func_state = type { i32, [4096 x %struct._func_version_cache_item] }
%struct._func_version_cache_item = type { ptr, ptr }
%struct._py_code_state = type { %struct.PyMutex, ptr }
%struct._Py_dict_state = type { i32, [8 x ptr] }
%struct._Py_exc_state = type { ptr, ptr, i32, ptr }
%struct._Py_mem_interp_free_queue = type { i32, %struct.PyMutex, %struct.llist_node }
%struct.ast_state = type { %struct._PyOnceFlag, i32, ptr, ptr, ptr, ptr, ptr, ptr, ptr, ptr, ptr, ptr, ptr, ptr, ptr, ptr, ptr, ptr, ptr, ptr, ptr, ptr, ptr, ptr, ptr, ptr, ptr, ptr, ptr, ptr, ptr, ptr, ptr, ptr, ptr, ptr, ptr, ptr, ptr, ptr, ptr, ptr, ptr, ptr, ptr, ptr, ptr, ptr, ptr, ptr, ptr, ptr, ptr, ptr, ptr, ptr, ptr, ptr, ptr, ptr, ptr, ptr, ptr, ptr, ptr, ptr, ptr, ptr, ptr, ptr, ptr, ptr, ptr, ptr, ptr, ptr, ptr, ptr, ptr, ptr, ptr, ptr, ptr, ptr, ptr, ptr, ptr, ptr, ptr, ptr, ptr, ptr, ptr, ptr, ptr, ptr, ptr, ptr, ptr, ptr, ptr, ptr, ptr, ptr, ptr, ptr, ptr, ptr, ptr, ptr, ptr, ptr, ptr, ptr, ptr, ptr, ptr, ptr, ptr, ptr, ptr, ptr, ptr, ptr, ptr, ptr, ptr, ptr, ptr, ptr, ptr, ptr, ptr, ptr, ptr, ptr, ptr, ptr, ptr, ptr, ptr, ptr, ptr, ptr, ptr, ptr, ptr, ptr, ptr, ptr, ptr, ptr, ptr, ptr, ptr, ptr, ptr, ptr, ptr, ptr, ptr, ptr, ptr, ptr, ptr, ptr, ptr, ptr, ptr, ptr, ptr, ptr, ptr, ptr, ptr, ptr, ptr, ptr, ptr, ptr, ptr, ptr, ptr, ptr, ptr, ptr, ptr, ptr, ptr, ptr, ptr, ptr, ptr, ptr, ptr, ptr, ptr, ptr, ptr, ptr, ptr, ptr, ptr, ptr, ptr, ptr, ptr, ptr, ptr, ptr, ptr, ptr, ptr, ptr, ptr, ptr, ptr, ptr, ptr, ptr, ptr, ptr, ptr, ptr, ptr, ptr, ptr, ptr, ptr, ptr, ptr, ptr, ptr, ptr, ptr, ptr, ptr, ptr, ptr, ptr, ptr, ptr, ptr, ptr, ptr }
%struct._PyOnceFlag = type { i8 }
%struct.types_state = type { i32, %struct.type_cache, %struct.anon.1, %struct.anon.2, %struct.PyMutex, [4096 x ptr] }
%struct.type_cache = type { [4096 x %struct.type_cache_entry] }
%struct.type_cache_entry = type { i32, ptr, ptr }
%struct.anon.1 = type { i64, [200 x %struct.managed_static_type_state] }
%struct.managed_static_type_state = type { ptr, i32, i32, i32, ptr, ptr, ptr }
%struct.anon.2 = type { i64, i64, [10 x %struct.managed_static_type_state] }
%struct.callable_cache = type { ptr, ptr, ptr, ptr }
%struct._rare_events = type { i8, i8, i8, i8, i8 }
%struct._Py_GlobalMonitors = type { [16 x i8] }
%struct._Py_interp_cached_objects = type { ptr, ptr, ptr, [10 x ptr], ptr, ptr, ptr, ptr, ptr, ptr, ptr }
%struct._Py_interp_static_objects = type { %struct.anon.3 }
%struct.anon.3 = type { i32, %struct.PyGC_Head, %struct.PyHamtObject, %struct.PyBaseExceptionObject }
%struct.PyHamtObject = type { %struct._object, ptr, ptr, i64 }
%struct.PyBaseExceptionObject = type { %struct._object, ptr, ptr, ptr, ptr, ptr, ptr, i8 }
%struct._PyThreadStateImpl = type { %struct._ts, ptr, ptr, ptr, %struct.llist_node }
%struct._ts = type { ptr, ptr, ptr, i64, %struct.anon.5, i32, i32, i32, i32, i32, i32, i32, i32, ptr, ptr, ptr, ptr, ptr, ptr, ptr, ptr, i32, ptr, i64, i64, ptr, i64, i32, ptr, ptr, ptr, i64, i64, ptr, ptr, ptr, %struct._err_stackitem, ptr, i64, ptr, ptr }
%struct.anon.5 = type { i32 }
%struct._err_stackitem = type { ptr, ptr }
%struct.__va_list_tag = type { i32, i32, ptr, ptr }
%struct.anon.4 = type { i32, i32 }

@_Py_tss_tstate = external thread_local global ptr, align 8
@PyExc_RuntimeError = external global ptr, align 8
@.str.7 = private unnamed_addr constant [59 x i8] c"warnings_get_state: could not identify current interpreter\00", align 1

; Function Attrs: alwaysinline nounwind uwtable
define internal i32 @_Py_IsImmortal(ptr noundef %0) #4 {
  %2 = alloca ptr, align 8
  store ptr %0, ptr %2, align 8, !tbaa !21
  %3 = load ptr, ptr %2, align 8, !tbaa !21
  %4 = getelementptr inbounds nuw %struct._object, ptr %3, i32 0, i32 0
  %5 = getelementptr inbounds nuw %struct.anon.4, ptr %4, i32 0, i32 0
  %6 = load i32, ptr %5, align 8, !tbaa !37
  %7 = icmp slt i32 %6, 0
  %8 = zext i1 %7 to i32
  ret i32 %8
}

; Function Attrs: nounwind uwtable
define internal ptr @warnings_get_state(ptr noundef %0) #0 {
  %2 = alloca ptr, align 8
  store ptr %0, ptr %2, align 8, !tbaa !4
  %3 = load ptr, ptr %2, align 8, !tbaa !4
  %4 = getelementptr inbounds nuw %struct._is, ptr %3, i32 0, i32 34
  ret ptr %4
}

; Function Attrs: inlinehint nounwind uwtable
define internal i32 @check_interp(ptr noundef %0) #5 {
  %2 = alloca i32, align 4
  %3 = alloca ptr, align 8
  store ptr %0, ptr %3, align 8, !tbaa !4
  %4 = load ptr, ptr %3, align 8, !tbaa !4
  %5 = icmp eq ptr %4, null
  br i1 %5, label %6, label %8

6:                                                ; preds = %1
  %7 = load ptr, ptr @PyExc_RuntimeError, align 8, !tbaa !21
  call void @PyErr_SetString(ptr noundef %7, ptr noundef @.str.7)
  store i32 0, ptr %2, align 4
  br label %9

8:                                                ; preds = %1
  store i32 1, ptr %2, align 4
  br label %9

9:                                                ; preds = %8, %6
  %10 = load i32, ptr %2, align 4
  ret i32 %10
}

; Function Attrs: inlinehint nounwind uwtable
define internal ptr @_PyThreadState_GET() #5 {
  %1 = call align 8 ptr @llvm.threadlocal.address.p0(ptr align 8 @_Py_tss_tstate)
  %2 = load ptr, ptr %1, align 8, !tbaa !38
  ret ptr %2
}

; Function Attrs: inlinehint nounwind uwtable
define internal void @Py_XDECREF(ptr noundef %0) #5 {
  %2 = alloca ptr, align 8
  store ptr %0, ptr %2, align 8, !tbaa !21
  %3 = load ptr, ptr %2, align 8, !tbaa !21
  %4 = icmp ne ptr %3, null
  br i1 %4, label %5, label %7

5:                                                ; preds = %1
  %6 = load ptr, ptr %2, align 8, !tbaa !21
  call void @Py_DECREF(ptr noundef %6)
  br label %7

7:                                                ; preds = %5, %1
  ret void
}

; Function Attrs: alwaysinline nounwind uwtable
define internal void @Py_DECREF(ptr noundef %0) #4 {
  %2 = alloca ptr, align 8
  store ptr %0, ptr %2, align 8, !tbaa !21
  %3 = load ptr, ptr %2, align 8, !tbaa !21
  %4 = call i32 @_Py_IsImmortal(ptr noundef %3)
  %5 = icmp ne i32 %4, 0
  br i1 %5, label %6, label %7

6:                                                ; preds = %1
  br label %16

7:                                                ; preds = %1
  %8 = load ptr, ptr %2, align 8, !tbaa !21
  %9 = getelementptr inbounds nuw %struct._object, ptr %8, i32 0, i32 0
  %10 = getelementptr inbounds nuw %struct.anon.4, ptr %9, i32 0, i32 0
  %11 = load i32, ptr %10, align 8, !tbaa !37
  %12 = add i32 %11, -1
  store i32 %12, ptr %10, align 8, !tbaa !37
  %13 = icmp eq i32 %12, 0
  br i1 %13, label %14, label %16

14:                                               ; preds = %7
  %15 = load ptr, ptr %2, align 8, !tbaa !21
  call void @_Py_Dealloc(ptr noundef %15)
  br label %16

16:                                               ; preds = %6, %14, %7
  ret void
}

; Function Attrs: inlinehint nounwind uwtable
define internal void @warnings_unlock(ptr noundef %0) #5 {
  %2 = alloca ptr, align 8
  %3 = alloca ptr, align 8
  store ptr %0, ptr %2, align 8, !tbaa !4
  call void @llvm.lifetime.start.p0(i64 8, ptr %3) #8
  %4 = load ptr, ptr %2, align 8, !tbaa !4
  %5 = call ptr @warnings_get_state(ptr noundef %4)
  store ptr %5, ptr %3, align 8, !tbaa !9
  %6 = load ptr, ptr %3, align 8, !tbaa !9
  %7 = getelementptr inbounds nuw %struct._warnings_runtime_state, ptr %6, i32 0, i32 3
  call void @_PyRecursiveMutex_Unlock(ptr noundef %7)
  call void @llvm.lifetime.end.p0(i64 8, ptr %3) #8
  ret void
}

; Function Attrs: inlinehint nounwind uwtable
define internal void @warnings_lock(ptr noundef %0) #5 {
  %2 = alloca ptr, align 8
  %3 = alloca ptr, align 8
  store ptr %0, ptr %2, align 8, !tbaa !4
  call void @llvm.lifetime.start.p0(i64 8, ptr %3) #8
  %4 = load ptr, ptr %2, align 8, !tbaa !4
  %5 = call ptr @warnings_get_state(ptr noundef %4)
  store ptr %5, ptr %3, align 8, !tbaa !9
  %6 = load ptr, ptr %3, align 8, !tbaa !9
  %7 = getelementptr inbounds nuw %struct._warnings_runtime_state, ptr %6, i32 0, i32 3
  call void @_PyRecursiveMutex_Lock(ptr noundef %7)
  call void @llvm.lifetime.end.p0(i64 8, ptr %3) #8
  ret void
}

; Function Attrs: inlinehint nounwind uwtable
define internal ptr @get_current_tstate() #5 {
  %1 = alloca ptr, align 8
  %2 = alloca ptr, align 8
  %3 = alloca i32, align 4
  call void @llvm.lifetime.start.p0(i64 8, ptr %2) #8
  %4 = call ptr @_PyThreadState_GET()
  store ptr %4, ptr %2, align 8, !tbaa !38
  %5 = load ptr, ptr %2, align 8, !tbaa !38
  %6 = icmp eq ptr %5, null
  br i1 %6, label %7, label %9

7:                                                ; preds = %0
  %8 = call i32 @check_interp(ptr noundef null)
  store ptr null, ptr %1, align 8
  store i32 1, ptr %3, align 4
  br label %20

9:                                                ; preds = %0
  %10 = load ptr, ptr %2, align 8, !tbaa !38
  %11 = getelementptr inbounds nuw %struct._ts, ptr %10, i32 0, i32 2
  %12 = load ptr, ptr %11, align 8, !tbaa !40
  %13 = call i32 @check_interp(ptr noundef %12)
  %14 = icmp ne i32 %13, 0
  br i1 %14, label %15, label %17

15:                                               ; preds = %9
  %16 = load ptr, ptr %2, align 8, !tbaa !38
  br label %18

17:                                               ; preds = %9
  br label %18

18:                                               ; preds = %17, %15
  %19 = phi ptr [ %16, %15 ], [ null, %17 ]
  store ptr %19, ptr %1, align 8
  store i32 1, ptr %3, align 4
  br label %20

20:                                               ; preds = %18, %7
  call void @llvm.lifetime.end.p0(i64 8, ptr %2) #8
  %21 = load ptr, ptr %1, align 8
  ret ptr %21
}

; Function Attrs: nounwind uwtable
define dso_local i32 @PyErr_WarnExplicitFormat(ptr noundef %0, ptr noundef %1, i32 noundef %2, ptr noundef %3, ptr noundef %4, ptr noundef %5, ...) #0 {
  %7 = alloca ptr, align 8
  %8 = alloca ptr, align 8
  %9 = alloca i32, align 4
  %10 = alloca ptr, align 8
  %11 = alloca ptr, align 8
  %12 = alloca ptr, align 8
  %13 = alloca ptr, align 8
  %14 = alloca ptr, align 8
  %15 = alloca ptr, align 8
  %16 = alloca i32, align 4
  %17 = alloca [1 x %struct.__va_list_tag], align 16
  %18 = alloca ptr, align 8
  %19 = alloca ptr, align 8
  store ptr %0, ptr %7, align 8, !tbaa !21
  store ptr %1, ptr %8, align 8, !tbaa !31
  store i32 %2, ptr %9, align 4, !tbaa !33
  store ptr %3, ptr %10, align 8, !tbaa !31
  store ptr %4, ptr %11, align 8, !tbaa !21
  store ptr %5, ptr %12, align 8, !tbaa !31
  call void @llvm.lifetime.start.p0(i64 8, ptr %13) #8
  call void @llvm.lifetime.start.p0(i64 8, ptr %14) #8
  store ptr null, ptr %14, align 8, !tbaa !21
  call void @llvm.lifetime.start.p0(i64 8, ptr %15) #8
  %20 = load ptr, ptr %8, align 8, !tbaa !31
  %21 = call ptr @PyUnicode_DecodeFSDefault(ptr noundef %20)
  store ptr %21, ptr %15, align 8, !tbaa !21
  call void @llvm.lifetime.start.p0(i64 4, ptr %16) #8
  store i32 -1, ptr %16, align 4, !tbaa !33
  call void @llvm.lifetime.start.p0(i64 24, ptr %17) #8
  %22 = load ptr, ptr %15, align 8, !tbaa !21
  %23 = icmp eq ptr %22, null
  br i1 %23, label %24, label %25

24:                                               ; preds = %6
  br label %70

25:                                               ; preds = %6
  %26 = load ptr, ptr %10, align 8, !tbaa !31
  %27 = icmp ne ptr %26, null
  br i1 %27, label %28, label %35

28:                                               ; preds = %25
  %29 = load ptr, ptr %10, align 8, !tbaa !31
  %30 = call ptr @PyUnicode_FromString(ptr noundef %29)
  store ptr %30, ptr %14, align 8, !tbaa !21
  %31 = load ptr, ptr %14, align 8, !tbaa !21
  %32 = icmp eq ptr %31, null
  br i1 %32, label %33, label %34

33:                                               ; preds = %28
  br label %70

34:                                               ; preds = %28
  br label %35

35:                                               ; preds = %34, %25
  %36 = getelementptr inbounds [1 x %struct.__va_list_tag], ptr %17, i64 0, i64 0
  call void @llvm.va_start.p0(ptr %36)
  %37 = load ptr, ptr %12, align 8, !tbaa !31
  %38 = getelementptr inbounds [1 x %struct.__va_list_tag], ptr %17, i64 0, i64 0
  %39 = call ptr @PyUnicode_FromFormatV(ptr noundef %37, ptr noundef %38)
  store ptr %39, ptr %13, align 8, !tbaa !21
  %40 = load ptr, ptr %13, align 8, !tbaa !21
  %41 = icmp ne ptr %40, null
  br i1 %41, label %42, label %68

42:                                               ; preds = %35
  call void @llvm.lifetime.start.p0(i64 8, ptr %18) #8
  call void @llvm.lifetime.start.p0(i64 8, ptr %19) #8
  %43 = call ptr @get_current_tstate()
  store ptr %43, ptr %19, align 8, !tbaa !38
  %44 = load ptr, ptr %19, align 8, !tbaa !38
  %45 = icmp ne ptr %44, null
  br i1 %45, label %46, label %67

46:                                               ; preds = %42
  %47 = load ptr, ptr %19, align 8, !tbaa !38
  %48 = getelementptr inbounds nuw %struct._ts, ptr %47, i32 0, i32 2
  %49 = load ptr, ptr %48, align 8, !tbaa !40
  call void @warnings_lock(ptr noundef %49)
  %50 = load ptr, ptr %19, align 8, !tbaa !38
  %51 = load ptr, ptr %7, align 8, !tbaa !21
  %52 = load ptr, ptr %13, align 8, !tbaa !21
  %53 = load ptr, ptr %15, align 8, !tbaa !21
  %54 = load i32, ptr %9, align 4, !tbaa !33
  %55 = load ptr, ptr %14, align 8, !tbaa !21
  %56 = load ptr, ptr %11, align 8, !tbaa !21
  %57 = call ptr @warn_explicit(ptr noundef %50, ptr noundef %51, ptr noundef %52, ptr noundef %53, i32 noundef %54, ptr noundef %55, ptr noundef %56, ptr noundef null, ptr noundef null)
  store ptr %57, ptr %18, align 8, !tbaa !21
  %58 = load ptr, ptr %19, align 8, !tbaa !38
  %59 = getelementptr inbounds nuw %struct._ts, ptr %58, i32 0, i32 2
  %60 = load ptr, ptr %59, align 8, !tbaa !40
  call void @warnings_unlock(ptr noundef %60)
  %61 = load ptr, ptr %13, align 8, !tbaa !21
  call void @Py_DECREF(ptr noundef %61)
  %62 = load ptr, ptr %18, align 8, !tbaa !21
  %63 = icmp ne ptr %62, null
  br i1 %63, label %64, label %66

64:                                               ; preds = %46
  %65 = load ptr, ptr %18, align 8, !tbaa !21
  call void @Py_DECREF(ptr noundef %65)
  store i32 0, ptr %16, align 4, !tbaa !33
  br label %66

66:                                               ; preds = %64, %46
  br label %67

67:                                               ; preds = %66, %42
  call void @llvm.lifetime.end.p0(i64 8, ptr %19) #8
  call void @llvm.lifetime.end.p0(i64 8, ptr %18) #8
  br label %68

68:                                               ; preds = %67, %35
  %69 = getelementptr inbounds [1 x %struct.__va_list_tag], ptr %17, i64 0, i64 0
  call void @llvm.va_end.p0(ptr %69)
  br label %70

70:                                               ; preds = %68, %33, %24
  %71 = load ptr, ptr %14, align 8, !tbaa !21
  call void @Py_XDECREF(ptr noundef %71)
  %72 = load ptr, ptr %15, align 8, !tbaa !21
  call void @Py_XDECREF(ptr noundef %72)
  %73 = load i32, ptr %16, align 4, !tbaa !33
  call void @llvm.lifetime.end.p0(i64 24, ptr %17) #8
  call void @llvm.lifetime.end.p0(i64 4, ptr %16) #8
  call void @llvm.lifetime.end.p0(i64 8, ptr %15) #8
  call void @llvm.lifetime.end.p0(i64 8, ptr %14) #8
  call void @llvm.lifetime.end.p0(i64 8, ptr %13) #8
  ret i32 %73
}