; Function Attrs: nounwind uwtable
define dso_local range(i32 -1, 1) i32 @PyErr_WarnExplicitFormat(ptr noundef %0, ptr noundef %1, i32 noundef %2, ptr noundef %3, ptr noundef %4, ptr noundef %5, ...) local_unnamed_addr #0 {
  %7 = alloca [1 x %struct.__va_list_tag], align 16
  %8 = tail call ptr @PyUnicode_DecodeFSDefault(ptr noundef %1) #7
  call void @llvm.lifetime.start.p0(i64 24, ptr nonnull %7) #7
  %9 = icmp eq ptr %8, null
  br i1 %9, label %Py_XDECREF.exit40, label %10

10:                                               ; preds = %6
  %.not = icmp eq ptr %3, null
  br i1 %.not, label %14, label %11

11:                                               ; preds = %10
  %12 = tail call ptr @PyUnicode_FromString(ptr noundef nonnull %3) #7
  %13 = icmp eq ptr %12, null
  br i1 %13, label %Py_XDECREF.exit, label %14

14:                                               ; preds = %11, %10
  %.1 = phi ptr [ %12, %11 ], [ null, %10 ]
  call void @llvm.va_start.p0(ptr nonnull %7)
  %15 = call ptr @PyUnicode_FromFormatV(ptr noundef %5, ptr noundef nonnull %7) #7
  %.not31 = icmp eq ptr %15, null
  br i1 %.not31, label %40, label %16

16:                                               ; preds = %14
  %17 = call align 8 ptr @llvm.threadlocal.address.p0(ptr align 8 @_Py_tss_tstate)
  %18 = load ptr, ptr %17, align 8, !tbaa !27
  %19 = icmp eq ptr %18, null
  br i1 %19, label %get_current_tstate.exit.thread, label %20

20:                                               ; preds = %16
  %21 = getelementptr inbounds nuw i8, ptr %18, i64 16
  %22 = load ptr, ptr %21, align 8, !tbaa !29
  %23 = icmp eq ptr %22, null
  br i1 %23, label %get_current_tstate.exit.thread, label %get_current_tstate.exit

get_current_tstate.exit.thread:                   ; preds = %16, %20
  %24 = load ptr, ptr @PyExc_RuntimeError, align 8, !tbaa !14
  call void @PyErr_SetString(ptr noundef %24, ptr noundef nonnull @.str.7) #7
  br label %40

get_current_tstate.exit:                          ; preds = %20
  %25 = getelementptr inbounds nuw i8, ptr %22, i64 10696
  call void @_PyRecursiveMutex_Lock(ptr noundef nonnull %25) #7
  %26 = call fastcc ptr @warn_explicit(ptr noundef %18, ptr noundef %0, ptr noundef nonnull %15, ptr noundef nonnull %8, i32 noundef %2, ptr noundef %.1, ptr noundef %4, ptr noundef null, ptr noundef null)
  %27 = load ptr, ptr %21, align 8, !tbaa !29
  %28 = getelementptr inbounds nuw i8, ptr %27, i64 10696
  call void @_PyRecursiveMutex_Unlock(ptr noundef nonnull %28) #7
  %29 = load i32, ptr %15, align 8, !tbaa !15
  %.not.i34 = icmp sgt i32 %29, -1
  br i1 %.not.i34, label %30, label %Py_DECREF.exit35

30:                                               ; preds = %get_current_tstate.exit
  %31 = add nsw i32 %29, -1
  store i32 %31, ptr %15, align 8, !tbaa !15
  %32 = icmp eq i32 %31, 0
  br i1 %32, label %33, label %Py_DECREF.exit35

33:                                               ; preds = %30
  call void @_Py_Dealloc(ptr noundef nonnull %15) #7
  br label %Py_DECREF.exit35

Py_DECREF.exit35:                                 ; preds = %get_current_tstate.exit, %30, %33
  %.not33 = icmp eq ptr %26, null
  br i1 %.not33, label %40, label %34

34:                                               ; preds = %Py_DECREF.exit35
  %35 = load i32, ptr %26, align 8, !tbaa !15
  %.not.i = icmp sgt i32 %35, -1
  br i1 %.not.i, label %36, label %40

36:                                               ; preds = %34
  %37 = add nsw i32 %35, -1
  store i32 %37, ptr %26, align 8, !tbaa !15
  %38 = icmp eq i32 %37, 0
  br i1 %38, label %39, label %40

39:                                               ; preds = %36
  call void @_Py_Dealloc(ptr noundef nonnull %26) #7
  br label %40

40:                                               ; preds = %14, %Py_DECREF.exit35, %get_current_tstate.exit.thread, %34, %36, %39
  %.123 = phi i32 [ -1, %14 ], [ -1, %Py_DECREF.exit35 ], [ -1, %get_current_tstate.exit.thread ], [ 0, %34 ], [ 0, %36 ], [ 0, %39 ]
  call void @llvm.va_end.p0(ptr nonnull %7)
  %.not.i37 = icmp eq ptr %.1, null
  br i1 %.not.i37, label %Py_XDECREF.exit, label %41

41:                                               ; preds = %40
  %42 = load i32, ptr %.1, align 8, !tbaa !15
  %.not.i.i = icmp sgt i32 %42, -1
  br i1 %.not.i.i, label %43, label %Py_XDECREF.exit

43:                                               ; preds = %41
  %44 = add nsw i32 %42, -1
  store i32 %44, ptr %.1, align 8, !tbaa !15
  %45 = icmp eq i32 %44, 0
  br i1 %45, label %46, label %Py_XDECREF.exit

46:                                               ; preds = %43
  call void @_Py_Dealloc(ptr noundef nonnull %.1) #7
  br label %Py_XDECREF.exit

Py_XDECREF.exit:                                  ; preds = %46, %43, %41, %40, %11
  %.0224648 = phi i32 [ -1, %11 ], [ %.123, %40 ], [ %.123, %41 ], [ %.123, %43 ], [ %.123, %46 ]
  %47 = load i32, ptr %8, align 8, !tbaa !15
  %.not.i.i39 = icmp sgt i32 %47, -1
  br i1 %.not.i.i39, label %48, label %Py_XDECREF.exit40

48:                                               ; preds = %Py_XDECREF.exit
  %49 = add nsw i32 %47, -1
  store i32 %49, ptr %8, align 8, !tbaa !15
  %50 = icmp eq i32 %49, 0
  br i1 %50, label %51, label %Py_XDECREF.exit40

51:                                               ; preds = %48
  call void @_Py_Dealloc(ptr noundef nonnull %8) #7
  br label %Py_XDECREF.exit40

Py_XDECREF.exit40:                                ; preds = %6, %Py_XDECREF.exit, %48, %51
  %.0224649 = phi i32 [ %.0224648, %Py_XDECREF.exit ], [ %.0224648, %48 ], [ %.0224648, %51 ], [ -1, %6 ]
  call void @llvm.lifetime.end.p0(i64 24, ptr nonnull %7) #7
  ret i32 %.0224649
}